Certificate:
    Data:
        Version: 1 (0x0)
        Serial Number: 1 (0x1)
        Signature Algorithm: sha1WithRSAEncryption
        Issuer: C=US, ST=North Carolina, L=Nowhere, O=Nothing, CN=Example CA
        Validity
            Not Before: Feb 20 17:59:32 2018 GMT
            Not After : Mar 28 17:59:32 2018 GMT
        Subject: C=US, ST=North Carolina, O=Nothing, CN=Example Server
        Subject Public Key Info:
            Public Key Algorithm: rsaEncryption
            RSA Public Key: (2048 bit)
                Modulus (2048 bit):
                    00:ae:dd:f2:1f:d6:f5:91:fb:fa:f3:b3:83:49:49:
                    dc:36:15:f0:1f:40:fb:e2:52:d5:26:5b:94:87:95:
                    e8:68:8f:74:28:72:d5:ff:30:b0:55:77:ea:1c:ee:
                    a2:9a:ec:9c:23:2e:5c:8e:3c:1f:64:30:10:be:1d:
                    41:c0:78:41:ea:31:4c:01:fc:56:0e:81:35:c9:8f:
                    e7:bf:91:f9:82:47:aa:4b:86:6f:2d:3d:db:2a:13:
                    91:93:74:63:53:61:97:de:5e:02:a5:f4:0a:39:7b:
                    fd:be:21:df:08:6d:d5:57:96:f5:8d:4d:72:4f:8f:
                    27:0e:da:79:f6:56:29:d1:a4:60:e4:b9:a3:5e:a1:
                    1f:4f:66:d7:d1:a9:15:1d:0f:dc:6c:35:ba:0b:28:
                    b8:0f:ed:cf:5f:2b:0b:80:c6:87:d5:82:41:eb:10:
                    49:4b:4c:4f:b4:9a:86:72:fb:a4:60:4f:9a:b2:e6:
                    05:39:81:f2:10:3b:58:53:bf:fd:67:c5:2b:73:2b:
                    56:00:80:86:3a:26:9b:57:9f:77:9e:6e:ef:d2:53:
                    1e:09:bc:32:c7:c7:96:6f:7d:be:8e:c9:fb:77:ab:
                    e9:7e:51:2b:65:31:9a:2e:f7:7c:88:d7:11:be:55:
                    a7:e1:a6:50:d5:bd:75:ef:08:1c:4b:41:06:89:a3:
                    60:a3
                Exponent: 65537 (0x10001)
    Signature Algorithm: sha1WithRSAEncryption
        23:10:a7:e0:d2:f3:23:c9:3f:20:0e:72:e4:0e:70:ce:fd:a8:
        3b:23:9d:7e:82:66:cc:fb:aa:b2:64:5b:27:28:d1:91:15:79:
        f9:f9:34:46:92:94:80:1b:b9:76:d3:6f:04:b2:f6:c5:37:48:
        77:a0:30:cf:a4:0e:04:f8:8a:7d:52:00:42:ea:be:39:61:d4:
        0d:ea:dc:08:87:b3:c6:10:85:53:ce:9c:95:6a:eb:e8:d0:54:
        b2:48:2f:a8:6f:cf:39:0c:d2:68:80:28:27:ce:0d:67:73:b4:
        1f:2c:bb:61:61:6b:04:3b:c3:f5:20:4c:1c:1f:d6:64:13:6a:
        3d:e3:74:9f:83:0c:60:3d:cc:3d:e1:db:d6:15:3b:b7:45:b0:
        9f:38:4c:2e:a1:28:b7:e5:17:87:6a:67:8e:5d:b7:0c:6f:46:
        0d:cb:55:15:76:6a:b5:64:f7:70:69:3d:2d:e3:d0:22:8d:50:
        af:74:1f:44:75:db:7f:ea:dd:e7:89:13:24:0a:b2:62:85:e1:
        50:0a:5d:97:40:e0:5d:47:e7:f4:8e:b9:47:7d:ed:b9:b0:b6:
        8a:99:97:ce:8f:f7:87:8d:0e:81:e2:7f:64:f2:b4:54:70:6b:
        37:e4:19:a8:38:da:e5:13:06:52:20:2f:f5:9b:d3:6d:03:03:
        4e:dd:68:ea
-----BEGIN CERTIFICATE-----
MIIDJDCCAgwCAQEwDQYJKoZIhvcNAQEFBQAwXzELMAkGA1UEBhMCVVMxFzAVBgNV
BAgTDk5vcnRoIENhcm9saW5hMRAwDgYDVQQHEwdOb3doZXJlMRAwDgYDVQQKEwdO
b3RoaW5nMRMwEQYDVQQDEwpFeGFtcGxlIENBMB4XDTE4MDIyMDE3NTkzMloXDTE4
MDMyODE3NTkzMlowUTELMAkGA1UEBhMCVVMxFzAVBgNVBAgTDk5vcnRoIENhcm9s
aW5hMRAwDgYDVQQKEwdOb3RoaW5nMRcwFQYDVQQDEw5FeGFtcGxlIFNlcnZlcjCC
ASIwDQYJKoZIhvcNAQEBBQADggEPADCCAQoCggEBAK7d8h/W9ZH7+vOzg0lJ3DYV
8B9A++JS1SZblIeV6GiPdChy1f8wsFV36hzuoprsnCMuXI48H2QwEL4dQcB4Qeox
TAH8Vg6BNcmP57+R+YJHqkuGby092yoTkZN0Y1Nhl95eAqX0Cjl7/b4h3wht1VeW
9Y1Nck+PJw7aefZWKdGkYOS5o16hH09m19GpFR0P3Gw1ugsouA/tz18rC4DGh9WC
QesQSUtMT7SahnL7pGBPmrLmBTmB8hA7WFO//WfFK3MrVgCAhjomm1efd55u79JT
Hgm8MsfHlm99vo7J+3er6X5RK2Uxmi73fIjXEb5Vp+GmUNW9de8IHEtBBomjYKMC
AwEAATANBgkqhkiG9w0BAQUFAAOCAQEAIxCn4NLzI8k/IA5y5A5wzv2oOyOdfoJm
zPuqsmRbJyjRkRV5+fk0RpKUgBu5dtNvBLL2xTdId6Awz6QOBPiKfVIAQuq+OWHU
DercCIezxhCFU86clWrr6NBUskgvqG/POQzSaIAoJ84NZ3O0Hyy7YWFrBDvD9SBM
HB/WZBNqPeN0n4MMYD3MPeHb1hU7t0WwnzhMLqEot+UXh2pnjl23DG9GDctVFXZq
tWT3cGk9LePQIo1Qr3QfRHXbf+rd54kTJAqyYoXhUApdl0DgXUfn9I65R33tubC2
ipmXzo/3h40OgeJ/ZPK0VHBrN+QZqDja5RMGUiAv9ZvTbQMDTt1o6g==
-----END CERTIFICATE-----
